target datalayout = "e-m:e-p270:32:32-p271:32:32-p272:64:64-i64:64-i128:128-f80:128-n8:16:32:64-S128"
target triple = "x86_64-pc-linux-gnu"

%struct.err_state_st = type { [16 x i32], [16 x i32], [16 x i64], [16 x ptr], [16 x i64], [16 x i32], [16 x ptr], [16 x i32], [16 x ptr], i32, i32 }

; Function Attrs: nounwind uwtable
define i32 @ERR_set_mark() #0 {
  %1 = alloca i32, align 4
  %2 = alloca ptr, align 8
  %3 = alloca i32, align 4
  call void @llvm.lifetime.start.p0(i64 8, ptr %2) #4
  %4 = call ptr @ossl_err_get_state_int()
  store ptr %4, ptr %2, align 8, !tbaa !3
  %5 = load ptr, ptr %2, align 8, !tbaa !3
  %6 = icmp eq ptr %5, null
  br i1 %6, label %7, label %8

7:                                                ; preds = %0
  store i32 0, ptr %1, align 4
  store i32 1, ptr %3, align 4
  br label %27

8:                                                ; preds = %0
  %9 = load ptr, ptr %2, align 8, !tbaa !3
  %10 = getelementptr inbounds nuw %struct.err_state_st, ptr %9, i32 0, i32 10
  %11 = load i32, ptr %10, align 4, !tbaa !8
  %12 = load ptr, ptr %2, align 8, !tbaa !3
  %13 = getelementptr inbounds nuw %struct.err_state_st, ptr %12, i32 0, i32 9
  %14 = load i32, ptr %13, align 8, !tbaa !11
  %15 = icmp eq i32 %11, %14
  br i1 %15, label %16, label %17

16:                                               ; preds = %8
  store i32 0, ptr %1, align 4
  store i32 1, ptr %3, align 4
  br label %27

17:                                               ; preds = %8
  %18 = load ptr, ptr %2, align 8, !tbaa !3
  %19 = getelementptr inbounds nuw %struct.err_state_st, ptr %18, i32 0, i32 1
  %20 = load ptr, ptr %2, align 8, !tbaa !3
  %21 = getelementptr inbounds nuw %struct.err_state_st, ptr %20, i32 0, i32 9
  %22 = load i32, ptr %21, align 8, !tbaa !11
  %23 = sext i32 %22 to i64
  %24 = getelementptr inbounds [16 x i32], ptr %19, i64 0, i64 %23
  %25 = load i32, ptr %24, align 4, !tbaa !12
  %26 = add nsw i32 %25, 1
  store i32 %26, ptr %24, align 4, !tbaa !12
  store i32 1, ptr %1, align 4
  store i32 1, ptr %3, align 4
  br label %27

27:                                               ; preds = %17, %16, %7
  call void @llvm.lifetime.end.p0(i64 8, ptr %2) #4
  %28 = load i32, ptr %1, align 4
  ret i32 %28
}