; Function Attrs: nounwind uwtable
define range(i32 0, 2) i32 @ERR_set_mark() local_unnamed_addr #0 {
  %1 = tail call ptr @ossl_err_get_state_int() #2
  %2 = icmp eq ptr %1, null
  br i1 %2, label %15, label %3

3:                                                ; preds = %0
  %4 = getelementptr inbounds nuw i8, ptr %1, i64 900
  %5 = load i32, ptr %4, align 4, !tbaa !3
  %6 = getelementptr inbounds nuw i8, ptr %1, i64 896
  %7 = load i32, ptr %6, align 8, !tbaa !8
  %8 = icmp eq i32 %5, %7
  br i1 %8, label %15, label %9

9:                                                ; preds = %3
  %10 = getelementptr inbounds nuw i8, ptr %1, i64 64
  %11 = sext i32 %7 to i64
  %12 = getelementptr inbounds [16 x i32], ptr %10, i64 0, i64 %11
  %13 = load i32, ptr %12, align 4, !tbaa !9
  %14 = add nsw i32 %13, 1
  store i32 %14, ptr %12, align 4, !tbaa !9
  br label %15

15:                                               ; preds = %3, %0, %9
  %.0 = phi i32 [ 1, %9 ], [ 0, %0 ], [ 0, %3 ]
  ret i32 %.0
}